; Function Attrs: mustprogress uwtable
define internal fastcc noundef i32 @_ZN5faiss12_GLOBAL__N_111mres_to_intERKNSt7__cxx119sub_matchIN9__gnu_cxx17__normal_iteratorIPKcNS1_12basic_stringIcSt11char_traitsIcESaIcEEEEEEEii(ptr noundef nonnull align 8 dereferenceable(17) %0, i32 noundef %1, i32 noundef %2) unnamed_addr #3 personality ptr @__gxx_personality_v0 {
  %4 = alloca ptr, align 8
  %5 = alloca %"class.std::__cxx11::basic_string", align 8
  %6 = alloca %"class.std::__cxx11::basic_string", align 8
  %7 = getelementptr inbounds i8, ptr %0, i64 16
  %8 = load i8, ptr %7, align 8
  %9 = and i8 %8, 1
  %.not.i = icmp eq i8 %9, 0
  %.sroa.01.0.copyload.i = load ptr, ptr %0, align 8
  %10 = getelementptr inbounds i8, ptr %0, i64 8
  %.sroa.0.0.copyload.i = load ptr, ptr %10, align 8
  %11 = icmp eq ptr %.sroa.0.0.copyload.i, %.sroa.01.0.copyload.i
  %12 = select i1 %.not.i, i1 true, i1 %11
  br i1 %12, label %43, label %13

13:                                               ; preds = %3
  call void @_ZNKSt7__cxx119sub_matchIN9__gnu_cxx17__normal_iteratorIPKcNS_12basic_stringIcSt11char_traitsIcESaIcEEEEEE3strEv(ptr dead_on_unwind nonnull writable sret(%"class.std::__cxx11::basic_string") align 8 %6, ptr noundef nonnull align 8 dereferenceable(17) %0)
  %14 = zext nneg i32 %2 to i64
  invoke void @_ZNKSt7__cxx1112basic_stringIcSt11char_traitsIcESaIcEE6substrEmm(ptr dead_on_unwind nonnull writable sret(%"class.std::__cxx11::basic_string") align 8 %5, ptr noundef nonnull align 8 dereferenceable(32) %6, i64 noundef %14, i64 noundef -1)
          to label %15 unwind label %40

15:                                               ; preds = %13
  %16 = call noundef ptr @_ZNKSt7__cxx1112basic_stringIcSt11char_traitsIcESaIcEE5c_strEv(ptr noundef nonnull align 8 dereferenceable(32) %5) #27
  call void @llvm.lifetime.start.p0(i64 8, ptr nonnull %4)
  %17 = tail call ptr @__errno_location() #33
  %18 = load i32, ptr %17, align 4
  store i32 0, ptr %17, align 4
  %19 = call noundef i64 @strtol(ptr noundef %16, ptr noundef nonnull %4, i32 noundef 10)
  %20 = load ptr, ptr %4, align 8
  %21 = icmp eq ptr %20, %16
  br i1 %21, label %22, label %29

22:                                               ; preds = %15
  invoke void @_ZSt24__throw_invalid_argumentPKc(ptr noundef nonnull @.str.264) #29
          to label %23 unwind label %24

23:                                               ; preds = %22
  unreachable

24:                                               ; preds = %.critedge.i.i, %22
  %25 = landingpad { ptr, i32 }
          cleanup
  %26 = load i32, ptr %17, align 4
  %27 = icmp eq i32 %26, 0
  br i1 %27, label %28, label %.body

28:                                               ; preds = %24
  store i32 %18, ptr %17, align 4
  br label %.body

29:                                               ; preds = %15
  %30 = load i32, ptr %17, align 4
  %31 = icmp eq i32 %30, 34
  %32 = add i64 %19, -2147483648
  %33 = icmp ult i64 %32, -4294967296
  %or.cond.i.i = or i1 %33, %31
  br i1 %or.cond.i.i, label %.critedge.i.i, label %35

.critedge.i.i:                                    ; preds = %29
  invoke void @_ZSt20__throw_out_of_rangePKc(ptr noundef nonnull @.str.264) #29
          to label %34 unwind label %24

34:                                               ; preds = %.critedge.i.i
  unreachable

35:                                               ; preds = %29
  %36 = icmp eq i32 %30, 0
  br i1 %36, label %37, label %38

37:                                               ; preds = %35
  store i32 %18, ptr %17, align 4
  br label %38

38:                                               ; preds = %37, %35
  %39 = trunc i64 %19 to i32
  call void @llvm.lifetime.end.p0(i64 8, ptr nonnull %4)
  call void @_ZNSt7__cxx1112basic_stringIcSt11char_traitsIcESaIcEED1Ev(ptr noundef nonnull align 8 dereferenceable(32) %5) #27
  call void @_ZNSt7__cxx1112basic_stringIcSt11char_traitsIcESaIcEED1Ev(ptr noundef nonnull align 8 dereferenceable(32) %6) #27
  br label %43

40:                                               ; preds = %13
  %41 = landingpad { ptr, i32 }
          cleanup
  br label %42

.body:                                            ; preds = %24, %28
  call void @_ZNSt7__cxx1112basic_stringIcSt11char_traitsIcESaIcEED1Ev(ptr noundef nonnull align 8 dereferenceable(32) %5) #27
  br label %42

42:                                               ; preds = %.body, %40
  %.pn = phi { ptr, i32 } [ %25, %.body ], [ %41, %40 ]
  call void @_ZNSt7__cxx1112basic_stringIcSt11char_traitsIcESaIcEED1Ev(ptr noundef nonnull align 8 dereferenceable(32) %6) #27
  resume { ptr, i32 } %.pn

43:                                               ; preds = %3, %38
  %.07 = phi i32 [ %39, %38 ], [ %1, %3 ]
  ret i32 %.07
}